target datalayout = "e-m:e-p270:32:32-p271:32:32-p272:64:64-i64:64-i128:128-f80:128-n8:16:32:64-S128"
target triple = "x86_64-pc-linux-gnu"

%"class.std::basic_string_view" = type { i64, ptr }
%"struct.absl::cord_internal::CordRep" = type { i64, %"class.absl::cord_internal::RefcountAndFlags", i8, [3 x i8] }
%"class.absl::cord_internal::RefcountAndFlags" = type { %"struct.std::atomic.123" }
%"struct.std::atomic.123" = type { %"struct.std::__atomic_base.124" }
%"struct.std::__atomic_base.124" = type { i32 }
%"struct.absl::cord_internal::CordRepExternal" = type { %"struct.absl::cord_internal::CordRep", ptr, ptr }

; Function Attrs: inlinehint mustprogress nounwind uwtable
define internal void @"_ZZN4absl12_GLOBAL__N_135CordzTest_MakeCordFromExternal_Test8TestBodyEvENK3$_0clESt17basic_string_viewIcSt11char_traitsIcEE"(ptr noundef nonnull align 1 dereferenceable(1) %0, i64 %1, ptr %2) #7 align 2 {
  %4 = alloca %"class.std::basic_string_view", align 8
  %5 = alloca ptr, align 8
  %6 = getelementptr inbounds nuw { i64, ptr }, ptr %4, i32 0, i32 0
  store i64 %1, ptr %6, align 8
  %7 = getelementptr inbounds nuw { i64, ptr }, ptr %4, i32 0, i32 1
  store ptr %2, ptr %7, align 8
  store ptr %0, ptr %5, align 8, !tbaa !33
  ret void
}

; Function Attrs: mustprogress uwtable
define internal void @"_ZSt13__invoke_implIvZN4absl12_GLOBAL__N_135CordzTest_MakeCordFromExternal_Test8TestBodyEvE3$_0JRSt17basic_string_viewIcSt11char_traitsIcEEEET_St14__invoke_otherOT0_DpOT1_"(ptr noundef nonnull align 1 dereferenceable(1) %0, ptr noundef nonnull align 8 dereferenceable(16) %1) #4 {
  %3 = alloca ptr, align 8
  %4 = alloca ptr, align 8
  %5 = alloca %"class.std::basic_string_view", align 8
  store ptr %0, ptr %3, align 8, !tbaa !33
  store ptr %1, ptr %4, align 8, !tbaa !232
  %6 = load ptr, ptr %3, align 8, !tbaa !33
  %7 = load ptr, ptr %4, align 8, !tbaa !232
  call void @llvm.memcpy.p0.p0.i64(ptr align 8 %5, ptr align 8 %7, i64 16, i1 false), !tbaa.struct !231
  %8 = getelementptr inbounds nuw { i64, ptr }, ptr %5, i32 0, i32 0
  %9 = load i64, ptr %8, align 8
  %10 = getelementptr inbounds nuw { i64, ptr }, ptr %5, i32 0, i32 1
  %11 = load ptr, ptr %10, align 8
  call void @"_ZZN4absl12_GLOBAL__N_135CordzTest_MakeCordFromExternal_Test8TestBodyEvENK3$_0clESt17basic_string_viewIcSt11char_traitsIcEE"(ptr noundef nonnull align 1 dereferenceable(1) %6, i64 %9, ptr %11)
  ret void
}

; Function Attrs: mustprogress uwtable
define internal void @"_ZSt8__invokeIZN4absl12_GLOBAL__N_135CordzTest_MakeCordFromExternal_Test8TestBodyEvE3$_0JRSt17basic_string_viewIcSt11char_traitsIcEEEENSt15__invoke_resultIT_JDpT0_EE4typeEOSA_DpOSB_"(ptr noundef nonnull align 1 dereferenceable(1) %0, ptr noundef nonnull align 8 dereferenceable(16) %1) #4 {
  %3 = alloca ptr, align 8
  %4 = alloca ptr, align 8
  store ptr %0, ptr %3, align 8, !tbaa !33
  store ptr %1, ptr %4, align 8, !tbaa !232
  %5 = load ptr, ptr %3, align 8, !tbaa !33
  %6 = load ptr, ptr %4, align 8, !tbaa !232
  call void @"_ZSt13__invoke_implIvZN4absl12_GLOBAL__N_135CordzTest_MakeCordFromExternal_Test8TestBodyEvE3$_0JRSt17basic_string_viewIcSt11char_traitsIcEEEET_St14__invoke_otherOT0_DpOT1_"(ptr noundef nonnull align 1 dereferenceable(1) %5, ptr noundef nonnull align 8 dereferenceable(16) %6)
  ret void
}

; Function Attrs: inlinehint mustprogress uwtable
define internal void @"_ZSt6invokeIZN4absl12_GLOBAL__N_135CordzTest_MakeCordFromExternal_Test8TestBodyEvE3$_0JRSt17basic_string_viewIcSt11char_traitsIcEEEENSt13invoke_resultIT_JDpT0_EE4typeEOSA_DpOSB_"(ptr noundef nonnull align 1 dereferenceable(1) %0, ptr noundef nonnull align 8 dereferenceable(16) %1) #9 {
  %3 = alloca ptr, align 8
  %4 = alloca ptr, align 8
  store ptr %0, ptr %3, align 8, !tbaa !33
  store ptr %1, ptr %4, align 8, !tbaa !232
  %5 = load ptr, ptr %3, align 8, !tbaa !33
  %6 = load ptr, ptr %4, align 8, !tbaa !232
  call void @"_ZSt8__invokeIZN4absl12_GLOBAL__N_135CordzTest_MakeCordFromExternal_Test8TestBodyEvE3$_0JRSt17basic_string_viewIcSt11char_traitsIcEEEENSt15__invoke_resultIT_JDpT0_EE4typeEOSA_DpOSB_"(ptr noundef nonnull align 1 dereferenceable(1) %5, ptr noundef nonnull align 8 dereferenceable(16) %6)
  ret void
}

; Function Attrs: mustprogress nounwind uwtable
define internal noundef nonnull align 1 dereferenceable(1) ptr @"_ZNR4absl18container_internal25internal_compressed_tuple7StorageIZNS_12_GLOBAL__N_135CordzTest_MakeCordFromExternal_Test8TestBodyEvE3$_0Lm0ELb1EE3getEv"(ptr noundef nonnull align 1 dereferenceable(1) %0) #6 align 2 {
  %2 = alloca ptr, align 8
  store ptr %0, ptr %2, align 8, !tbaa !992
  %3 = load ptr, ptr %2, align 8
  ret ptr %3
}

; Function Attrs: noinline noreturn nounwind uwtable
define linkonce_odr hidden void @__clang_call_terminate(ptr noundef %0) #11 comdat {
  %2 = call ptr @__cxa_begin_catch(ptr %0) #3
  call void @_ZSt9terminatev() #30
  unreachable
}

; Function Attrs: mustprogress uwtable
define internal void @"_ZN4absl13cord_internal14InvokeReleaserIZNS_12_GLOBAL__N_135CordzTest_MakeCordFromExternal_Test8TestBodyEvE3$_0vEEvNS0_5Rank1EOT_St17basic_string_viewIcSt11char_traitsIcEE"(ptr noundef nonnull align 1 dereferenceable(1) %0, i64 %1, ptr %2) #4 {
  %4 = alloca %"class.std::basic_string_view", align 8
  %5 = alloca ptr, align 8
  %6 = getelementptr inbounds nuw { i64, ptr }, ptr %4, i32 0, i32 0
  store i64 %1, ptr %6, align 8
  %7 = getelementptr inbounds nuw { i64, ptr }, ptr %4, i32 0, i32 1
  store ptr %2, ptr %7, align 8
  store ptr %0, ptr %5, align 8, !tbaa !33
  %8 = load ptr, ptr %5, align 8, !tbaa !33
  call void @"_ZSt6invokeIZN4absl12_GLOBAL__N_135CordzTest_MakeCordFromExternal_Test8TestBodyEvE3$_0JRSt17basic_string_viewIcSt11char_traitsIcEEEENSt13invoke_resultIT_JDpT0_EE4typeEOSA_DpOSB_"(ptr noundef nonnull align 1 dereferenceable(1) %8, ptr noundef nonnull align 8 dereferenceable(16) %4)
  ret void
}

; Function Attrs: mustprogress nounwind uwtable
define linkonce_odr dso_local void @_ZNSt17basic_string_viewIcSt11char_traitsIcEEC2EPKcm(ptr noundef nonnull align 8 dereferenceable(16) %0, ptr noundef %1, i64 noundef %2) unnamed_addr #6 comdat align 2 {
  %4 = alloca ptr, align 8
  %5 = alloca ptr, align 8
  %6 = alloca i64, align 8
  store ptr %0, ptr %4, align 8, !tbaa !232
  store ptr %1, ptr %5, align 8, !tbaa !30
  store i64 %2, ptr %6, align 8, !tbaa !27
  %7 = load ptr, ptr %4, align 8
  %8 = getelementptr inbounds nuw %"class.std::basic_string_view", ptr %7, i32 0, i32 0
  %9 = load i64, ptr %6, align 8, !tbaa !27
  store i64 %9, ptr %8, align 8, !tbaa !234
  %10 = getelementptr inbounds nuw %"class.std::basic_string_view", ptr %7, i32 0, i32 1
  %11 = load ptr, ptr %5, align 8, !tbaa !30
  store ptr %11, ptr %10, align 8, !tbaa !236
  ret void
}

; Function Attrs: mustprogress uwtable
define internal noundef nonnull align 1 dereferenceable(1) ptr @"_ZNR4absl18container_internal15CompressedTupleIJZNS_12_GLOBAL__N_135CordzTest_MakeCordFromExternal_Test8TestBodyEvE3$_0EE3getILi0EEERNS0_25internal_compressed_tuple4ElemIS5_XT_EE4typeEv"(ptr noundef nonnull align 1 dereferenceable(1) %0) #4 align 2 {
  %2 = alloca ptr, align 8
  store ptr %0, ptr %2, align 8, !tbaa !988
  %3 = load ptr, ptr %2, align 8
  %4 = call noundef nonnull align 1 dereferenceable(1) ptr @"_ZNR4absl18container_internal25internal_compressed_tuple7StorageIZNS_12_GLOBAL__N_135CordzTest_MakeCordFromExternal_Test8TestBodyEvE3$_0Lm0ELb1EE3getEv"(ptr noundef nonnull align 1 dereferenceable(1) %3)
  ret ptr %4
}

; Function Attrs: mustprogress nounwind uwtable
define internal void @"_ZN4absl13cord_internal19CordRepExternalImplIZNS_12_GLOBAL__N_135CordzTest_MakeCordFromExternal_Test8TestBodyEvE3$_0ED2Ev"(ptr noundef nonnull align 8 dereferenceable(32) %0) unnamed_addr #6 align 2 personality ptr @__gxx_personality_v0 {
  %2 = alloca ptr, align 8
  %3 = alloca %"class.std::basic_string_view", align 8
  store ptr %0, ptr %2, align 8, !tbaa !984
  %4 = load ptr, ptr %2, align 8
  %5 = invoke noundef nonnull align 1 dereferenceable(1) ptr @"_ZNR4absl18container_internal15CompressedTupleIJZNS_12_GLOBAL__N_135CordzTest_MakeCordFromExternal_Test8TestBodyEvE3$_0EE3getILi0EEERNS0_25internal_compressed_tuple4ElemIS5_XT_EE4typeEv"(ptr noundef nonnull align 1 dereferenceable(1) %4)
          to label %6 unwind label %16

6:                                                ; preds = %1
  %7 = getelementptr inbounds nuw %"struct.absl::cord_internal::CordRepExternal", ptr %4, i32 0, i32 1
  %8 = load ptr, ptr %7, align 8, !tbaa !994
  %9 = getelementptr inbounds nuw %"struct.absl::cord_internal::CordRep", ptr %4, i32 0, i32 0
  %10 = load i64, ptr %9, align 8, !tbaa !430
  call void @_ZNSt17basic_string_viewIcSt11char_traitsIcEEC2EPKcm(ptr noundef nonnull align 8 dereferenceable(16) %3, ptr noundef %8, i64 noundef %10) #3
  %11 = getelementptr inbounds nuw { i64, ptr }, ptr %3, i32 0, i32 0
  %12 = load i64, ptr %11, align 8
  %13 = getelementptr inbounds nuw { i64, ptr }, ptr %3, i32 0, i32 1
  %14 = load ptr, ptr %13, align 8
  invoke void @"_ZN4absl13cord_internal14InvokeReleaserIZNS_12_GLOBAL__N_135CordzTest_MakeCordFromExternal_Test8TestBodyEvE3$_0vEEvNS0_5Rank1EOT_St17basic_string_viewIcSt11char_traitsIcEE"(ptr noundef nonnull align 1 dereferenceable(1) %5, i64 %12, ptr %14)
          to label %15 unwind label %16

15:                                               ; preds = %6
  ret void

16:                                               ; preds = %6, %1
  %17 = landingpad { ptr, i32 }
          catch ptr null
  %18 = extractvalue { ptr, i32 } %17, 0
  call void @__clang_call_terminate(ptr %18) #30
  unreachable
}

; Function Attrs: mustprogress nounwind uwtable
define internal void @"_ZN4absl13cord_internal19CordRepExternalImplIZNS_12_GLOBAL__N_135CordzTest_MakeCordFromExternal_Test8TestBodyEvE3$_0E7ReleaseEPNS0_15CordRepExternalE"(ptr noundef %0) #6 align 2 {
  %2 = alloca ptr, align 8
  store ptr %0, ptr %2, align 8, !tbaa !980
  %3 = load ptr, ptr %2, align 8, !tbaa !980
  %4 = icmp eq ptr %3, null
  br i1 %4, label %6, label %5

5:                                                ; preds = %1
  call void @"_ZN4absl13cord_internal19CordRepExternalImplIZNS_12_GLOBAL__N_135CordzTest_MakeCordFromExternal_Test8TestBodyEvE3$_0ED2Ev"(ptr noundef nonnull align 8 dereferenceable(32) %3) #3
  call void @_ZdlPvm(ptr noundef %3, i64 noundef 32) #29
  br label %6

6:                                                ; preds = %5, %1
  ret void
}