; Function Attrs: mustprogress nounwind uwtable
define internal void @"_ZN4absl13cord_internal19CordRepExternalImplIZNS_12_GLOBAL__N_135CordzTest_MakeCordFromExternal_Test8TestBodyEvE3$_0E7ReleaseEPNS0_15CordRepExternalE"(ptr noundef %0) #5 align 2 personality ptr @__gxx_personality_v0 {
  %2 = icmp eq ptr %0, null
  br i1 %2, label %4, label %3

3:                                                ; preds = %1
  tail call void @_ZdlPvm(ptr noundef nonnull %0, i64 noundef 32) #36
  br label %4

4:                                                ; preds = %3, %1
  ret void
}